; Function Attrs: nounwind sspstrong uwtable
define dso_local void @tcg_gen_hswap_i64(ptr noundef %0, ptr noundef %1) local_unnamed_addr #2 {
  %3 = tail call ptr @tcg_temp_ebb_new_i64() #6
  %4 = tail call ptr @tcg_temp_ebb_new_i64() #6
  %5 = tail call ptr @tcg_constant_i64(i64 noundef 32) #6
  %6 = tail call align 8 ptr @llvm.threadlocal.address.p0(ptr align 8 @tcg_ctx)
  %7 = load ptr, ptr %6, align 8
  %8 = ptrtoint ptr %4 to i64
  %9 = getelementptr inbounds nuw i8, ptr %7, i64 %8
  %10 = ptrtoint ptr %9 to i64
  %11 = ptrtoint ptr %1 to i64
  %12 = getelementptr inbounds nuw i8, ptr %7, i64 %11
  %13 = ptrtoint ptr %12 to i64
  %14 = ptrtoint ptr %5 to i64
  %15 = getelementptr inbounds nuw i8, ptr %7, i64 %14
  %16 = ptrtoint ptr %15 to i64
  %17 = tail call ptr @tcg_gen_op3(i32 noundef 93, i32 noundef 1, i64 noundef %10, i64 noundef %13, i64 noundef %16)
  %18 = tail call ptr @tcg_constant_i64(i64 noundef 281470681808895) #6
  %19 = load ptr, ptr %6, align 8
  %20 = ptrtoint ptr %3 to i64
  %21 = getelementptr inbounds nuw i8, ptr %19, i64 %20
  %22 = ptrtoint ptr %21 to i64
  %23 = getelementptr inbounds nuw i8, ptr %19, i64 %8
  %24 = ptrtoint ptr %23 to i64
  %25 = ptrtoint ptr %18 to i64
  %26 = getelementptr inbounds nuw i8, ptr %19, i64 %25
  %27 = ptrtoint ptr %26 to i64
  %28 = tail call ptr @tcg_gen_op3(i32 noundef 87, i32 noundef 1, i64 noundef %22, i64 noundef %24, i64 noundef %27)
  %29 = tail call ptr @tcg_constant_i64(i64 noundef 16) #6
  %30 = load ptr, ptr %6, align 8
  %31 = getelementptr inbounds nuw i8, ptr %30, i64 %20
  %32 = ptrtoint ptr %31 to i64
  %33 = ptrtoint ptr %29 to i64
  %34 = getelementptr inbounds nuw i8, ptr %30, i64 %33
  %35 = ptrtoint ptr %34 to i64
  %36 = tail call ptr @tcg_gen_op3(i32 noundef 90, i32 noundef 1, i64 noundef %32, i64 noundef %32, i64 noundef %35)
  %37 = tail call ptr @tcg_constant_i64(i64 noundef 16) #6
  %38 = load ptr, ptr %6, align 8
  %39 = getelementptr inbounds nuw i8, ptr %38, i64 %8
  %40 = ptrtoint ptr %39 to i64
  %41 = ptrtoint ptr %37 to i64
  %42 = getelementptr inbounds nuw i8, ptr %38, i64 %41
  %43 = ptrtoint ptr %42 to i64
  %44 = tail call ptr @tcg_gen_op3(i32 noundef 91, i32 noundef 1, i64 noundef %40, i64 noundef %40, i64 noundef %43)
  %45 = tail call ptr @tcg_constant_i64(i64 noundef 281470681808895) #6
  %46 = load ptr, ptr %6, align 8
  %47 = getelementptr inbounds nuw i8, ptr %46, i64 %8
  %48 = ptrtoint ptr %47 to i64
  %49 = ptrtoint ptr %45 to i64
  %50 = getelementptr inbounds nuw i8, ptr %46, i64 %49
  %51 = ptrtoint ptr %50 to i64
  %52 = tail call ptr @tcg_gen_op3(i32 noundef 87, i32 noundef 1, i64 noundef %48, i64 noundef %48, i64 noundef %51)
  %53 = load ptr, ptr %6, align 8
  %54 = ptrtoint ptr %0 to i64
  %55 = getelementptr inbounds nuw i8, ptr %53, i64 %54
  %56 = ptrtoint ptr %55 to i64
  %57 = getelementptr inbounds nuw i8, ptr %53, i64 %20
  %58 = ptrtoint ptr %57 to i64
  %59 = getelementptr inbounds nuw i8, ptr %53, i64 %8
  %60 = ptrtoint ptr %59 to i64
  %61 = tail call ptr @tcg_gen_op3(i32 noundef 88, i32 noundef 1, i64 noundef %56, i64 noundef %58, i64 noundef %60)
  tail call void @tcg_temp_free_i64(ptr noundef %3) #6
  tail call void @tcg_temp_free_i64(ptr noundef %4) #6
  ret void
}